(lp0
(lp1
S'02'
p2
aS'04'
p3
aS'07'
p4
aS'09'
p5
aS'14'
p6
aS'29'
p7
aS'03'
p8
aa(lp9
S'03'
p10
aS'04'
p11
aS'18'
p12
aS'22'
p13
aS'25'
p14
aS'29'
p15
aS'09'
p16
aa(lp17
S'06'
p18
aS'08'
p19
aS'11'
p20
aS'13'
p21
aS'17'
p22
aS'19'
p23
aS'12'
p24
aa(lp25
S'04'
p26
aS'08'
p27
aS'22'
p28
aS'23'
p29
aS'27'
p30
aS'29'
p31
aS'08'
p32
aa(lp33
S'03'
p34
aS'05'
p35
aS'15'
p36
aS'22'
p37
aS'24'
p38
aS'25'
p39
aS'15'
p40
aa(lp41
S'01'
p42
aS'14'
p43
aS'16'
p44
aS'18'
p45
aS'22'
p46
aS'27'
p47
aS'14'
p48
aa(lp49
S'01'
p50
aS'13'
p51
aS'17'
p52
aS'22'
p53
aS'23'
p54
aS'30'
p55
aS'11'
p56
aa(lp57
S'02'
p58
aS'15'
p59
aS'16'
p60
aS'23'
p61
aS'26'
p62
aS'27'
p63
aS'07'
p64
aa(lp65
S'09'
p66
aS'21'
p67
aS'29'
p68
aS'30'
p69
aS'31'
p70
aS'32'
p71
aS'16'
p72
aa(lp73
S'03'
p74
aS'08'
p75
aS'11'
p76
aS'17'
p77
aS'21'
p78
aS'27'
p79
aS'09'
p80
aa(lp81
S'02'
p82
aS'14'
p83
aS'17'
p84
aS'21'
p85
aS'30'
p86
aS'32'
p87
aS'03'
p88
aa(lp89
S'03'
p90
aS'04'
p91
aS'05'
p92
aS'16'
p93
aS'20'
p94
aS'30'
p95
aS'13'
p96
aa(lp97
S'02'
p98
aS'08'
p99
aS'15'
p100
aS'16'
p101
aS'22'
p102
aS'28'
p103
aS'10'
p104
aa(lp105
S'03'
p106
aS'09'
p107
aS'11'
p108
aS'17'
p109
aS'21'
p110
aS'31'
p111
aS'14'
p112
aa(lp113
S'06'
p114
aS'08'
p115
aS'11'
p116
aS'16'
p117
aS'29'
p118
aS'33'
p119
aS'03'
p120
aa(lp121
S'03'
p122
aS'12'
p123
aS'14'
p124
aS'21'
p125
aS'29'
p126
aS'33'
p127
aS'13'
p128
aa(lp129
S'02'
p130
aS'05'
p131
aS'07'
p132
aS'17'
p133
aS'20'
p134
aS'22'
p135
aS'02'
p136
aa(lp137
S'02'
p138
aS'05'
p139
aS'06'
p140
aS'23'
p141
aS'26'
p142
aS'33'
p143
aS'13'
p144
aa(lp145
S'02'
p146
aS'09'
p147
aS'11'
p148
aS'17'
p149
aS'27'
p150
aS'31'
p151
aS'05'
p152
aa(lp153
S'03'
p154
aS'10'
p155
aS'13'
p156
aS'15'
p157
aS'28'
p158
aS'30'
p159
aS'03'
p160
aa(lp161
S'09'
p162
aS'12'
p163
aS'19'
p164
aS'20'
p165
aS'26'
p166
aS'28'
p167
aS'15'
p168
aa(lp169
S'12'
p170
aS'18'
p171
aS'20'
p172
aS'24'
p173
aS'28'
p174
aS'32'
p175
aS'05'
p176
aa(lp177
S'08'
p178
aS'16'
p179
aS'18'
p180
aS'25'
p181
aS'26'
p182
aS'32'
p183
aS'02'
p184
aa(lp185
S'11'
p186
aS'20'
p187
aS'21'
p188
aS'26'
p189
aS'28'
p190
aS'30'
p191
aS'13'
p192
aa(lp193
S'08'
p194
aS'16'
p195
aS'17'
p196
aS'18'
p197
aS'19'
p198
aS'21'
p199
aS'14'
p200
aa(lp201
S'05'
p202
aS'17'
p203
aS'19'
p204
aS'27'
p205
aS'29'
p206
aS'32'
p207
aS'03'
p208
aa(lp209
S'15'
p210
aS'18'
p211
aS'19'
p212
aS'23'
p213
aS'24'
p214
aS'26'
p215
aS'13'
p216
aa(lp217
S'01'
p218
aS'13'
p219
aS'21'
p220
aS'26'
p221
aS'29'
p222
aS'32'
p223
aS'10'
p224
aa(lp225
S'01'
p226
aS'09'
p227
aS'14'
p228
aS'22'
p229
aS'29'
p230
aS'32'
p231
aS'12'
p232
aa(lp233
S'06'
p234
aS'15'
p235
aS'18'
p236
aS'19'
p237
aS'20'
p238
aS'28'
p239
aS'11'
p240
aa(lp241
S'03'
p242
aS'06'
p243
aS'11'
p244
aS'15'
p245
aS'21'
p246
aS'31'
p247
aS'13'
p248
aa(lp249
S'05'
p250
aS'14'
p251
aS'16'
p252
aS'21'
p253
aS'23'
p254
aS'28'
p255
aS'13'
p256
aa(lp257
S'12'
p258
aS'17'
p259
aS'18'
p260
aS'30'
p261
aS'31'
p262
aS'33'
p263
aS'04'
p264
aa(lp265
S'03'
p266
aS'05'
p267
aS'09'
p268
aS'11'
p269
aS'21'
p270
aS'29'
p271
aS'09'
p272
aa(lp273
S'07'
p274
aS'11'
p275
aS'14'
p276
aS'17'
p277
aS'18'
p278
aS'29'
p279
aS'16'
p280
aa(lp281
S'02'
p282
aS'06'
p283
aS'13'
p284
aS'18'
p285
aS'23'
p286
aS'28'
p287
aS'16'
p288
aa(lp289
S'01'
p290
aS'12'
p291
aS'22'
p292
aS'24'
p293
aS'28'
p294
aS'31'
p295
aS'06'
p296
aa(lp297
S'03'
p298
aS'09'
p299
aS'10'
p300
aS'11'
p301
aS'15'
p302
aS'19'
p303
aS'13'
p304
aa(lp305
S'01'
p306
aS'07'
p307
aS'10'
p308
aS'13'
p309
aS'22'
p310
aS'29'
p311
aS'01'
p312
aa(lp313
S'06'
p314
aS'13'
p315
aS'22'
p316
aS'25'
p317
aS'27'
p318
aS'28'
p319
aS'09'
p320
aa(lp321
S'08'
p322
aS'11'
p323
aS'20'
p324
aS'22'
p325
aS'23'
p326
aS'27'
p327
aS'04'
p328
aa(lp329
S'03'
p330
aS'04'
p331
aS'09'
p332
aS'11'
p333
aS'12'
p334
aS'24'
p335
aS'01'
p336
aa(lp337
S'03'
p338
aS'10'
p339
aS'16'
p340
aS'22'
p341
aS'27'
p342
aS'33'
p343
aS'14'
p344
aa(lp345
S'05'
p346
aS'07'
p347
aS'09'
p348
aS'20'
p349
aS'26'
p350
aS'29'
p351
aS'09'
p352
aa(lp353
S'01'
p354
aS'10'
p355
aS'13'
p356
aS'21'
p357
aS'29'
p358
aS'32'
p359
aS'04'
p360
aa(lp361
S'15'
p362
aS'16'
p363
aS'18'
p364
aS'24'
p365
aS'28'
p366
aS'33'
p367
aS'15'
p368
aa(lp369
S'09'
p370
aS'12'
p371
aS'13'
p372
aS'14'
p373
aS'20'
p374
aS'22'
p375
aS'10'
p376
aa(lp377
S'11'
p378
aS'18'
p379
aS'21'
p380
aS'27'
p381
aS'30'
p382
aS'32'
p383
aS'01'
p384
aa(lp385
S'03'
p386
aS'10'
p387
aS'12'
p388
aS'13'
p389
aS'19'
p390
aS'25'
p391
aS'04'
p392
aa(lp393
S'01'
p394
aS'11'
p395
aS'19'
p396
aS'24'
p397
aS'26'
p398
aS'27'
p399
aS'03'
p400
aa(lp401
S'01'
p402
aS'04'
p403
aS'08'
p404
aS'10'
p405
aS'13'
p406
aS'33'
p407
aS'11'
p408
aa(lp409
S'02'
p410
aS'10'
p411
aS'17'
p412
aS'23'
p413
aS'29'
p414
aS'31'
p415
aS'10'
p416
aa(lp417
S'06'
p418
aS'12'
p419
aS'19'
p420
aS'20'
p421
aS'21'
p422
aS'27'
p423
aS'04'
p424
aa(lp425
S'02'
p426
aS'06'
p427
aS'16'
p428
aS'17'
p429
aS'20'
p430
aS'25'
p431
aS'07'
p432
aa(lp433
S'11'
p434
aS'16'
p435
aS'19'
p436
aS'23'
p437
aS'26'
p438
aS'31'
p439
aS'04'
p440
aa(lp441
S'08'
p442
aS'13'
p443
aS'22'
p444
aS'23'
p445
aS'25'
p446
aS'30'
p447
aS'07'
p448
aa(lp449
S'19'
p450
aS'20'
p451
aS'21'
p452
aS'26'
p453
aS'28'
p454
aS'30'
p455
aS'08'
p456
aa(lp457
S'01'
p458
aS'12'
p459
aS'21'
p460
aS'27'
p461
aS'29'
p462
aS'31'
p463
aS'11'
p464
aa(lp465
S'02'
p466
aS'06'
p467
aS'15'
p468
aS'29'
p469
aS'31'
p470
aS'32'
p471
aS'16'
p472
aa(lp473
S'06'
p474
aS'07'
p475
aS'08'
p476
aS'17'
p477
aS'30'
p478
aS'32'
p479
aS'03'
p480
aa(lp481
S'01'
p482
aS'02'
p483
aS'05'
p484
aS'12'
p485
aS'26'
p486
aS'31'
p487
aS'06'
p488
aa(lp489
S'06'
p490
aS'08'
p491
aS'13'
p492
aS'17'
p493
aS'24'
p494
aS'27'
p495
aS'15'
p496
aa(lp497
S'05'
p498
aS'09'
p499
aS'11'
p500
aS'14'
p501
aS'16'
p502
aS'17'
p503
aS'15'
p504
aa(lp505
S'01'
p506
aS'02'
p507
aS'07'
p508
aS'09'
p509
aS'12'
p510
aS'18'
p511
aS'12'
p512
aa(lp513
S'05'
p514
aS'13'
p515
aS'15'
p516
aS'19'
p517
aS'30'
p518
aS'31'
p519
aS'05'
p520
aa(lp521
S'07'
p522
aS'12'
p523
aS'21'
p524
aS'22'
p525
aS'29'
p526
aS'30'
p527
aS'08'
p528
aa(lp529
S'10'
p530
aS'11'
p531
aS'15'
p532
aS'19'
p533
aS'26'
p534
aS'33'
p535
aS'13'
p536
aa(lp537
S'05'
p538
aS'07'
p539
aS'17'
p540
aS'23'
p541
aS'27'
p542
aS'29'
p543
aS'07'
p544
aa(lp545
S'05'
p546
aS'08'
p547
aS'17'
p548
aS'20'
p549
aS'26'
p550
aS'30'
p551
aS'10'
p552
aa(lp553
S'05'
p554
aS'06'
p555
aS'12'
p556
aS'15'
p557
aS'18'
p558
aS'33'
p559
aS'13'
p560
aa(lp561
S'01'
p562
aS'06'
p563
aS'21'
p564
aS'26'
p565
aS'27'
p566
aS'28'
p567
aS'09'
p568
aa(lp569
S'01'
p570
aS'05'
p571
aS'10'
p572
aS'18'
p573
aS'22'
p574
aS'30'
p575
aS'09'
p576
aa(lp577
S'01'
p578
aS'09'
p579
aS'13'
p580
aS'22'
p581
aS'28'
p582
aS'33'
p583
aS'08'
p584
aa(lp585
S'01'
p586
aS'11'
p587
aS'15'
p588
aS'19'
p589
aS'20'
p590
aS'24'
p591
aS'09'
p592
aa(lp593
S'01'
p594
aS'08'
p595
aS'14'
p596
aS'18'
p597
aS'22'
p598
aS'30'
p599
aS'03'
p600
aa(lp601
S'02'
p602
aS'05'
p603
aS'07'
p604
aS'11'
p605
aS'13'
p606
aS'18'
p607
aS'11'
p608
aa(lp609
S'04'
p610
aS'12'
p611
aS'22'
p612
aS'26'
p613
aS'30'
p614
aS'33'
p615
aS'09'
p616
aa(lp617
S'06'
p618
aS'13'
p619
aS'16'
p620
aS'26'
p621
aS'30'
p622
aS'33'
p623
aS'01'
p624
aa(lp625
S'03'
p626
aS'04'
p627
aS'05'
p628
aS'10'
p629
aS'20'
p630
aS'32'
p631
aS'09'
p632
aa(lp633
S'04'
p634
aS'14'
p635
aS'22'
p636
aS'25'
p637
aS'29'
p638
aS'32'
p639
aS'14'
p640
aa(lp641
S'02'
p642
aS'12'
p643
aS'13'
p644
aS'18'
p645
aS'25'
p646
aS'31'
p647
aS'04'
p648
aa(lp649
S'04'
p650
aS'08'
p651
aS'10'
p652
aS'12'
p653
aS'21'
p654
aS'26'
p655
aS'09'
p656
aa(lp657
S'07'
p658
aS'08'
p659
aS'09'
p660
aS'18'
p661
aS'29'
p662
aS'32'
p663
aS'09'
p664
aa(lp665
S'04'
p666
aS'07'
p667
aS'13'
p668
aS'20'
p669
aS'29'
p670
aS'30'
p671
aS'16'
p672
aa(lp673
S'01'
p674
aS'04'
p675
aS'12'
p676
aS'20'
p677
aS'24'
p678
aS'29'
p679
aS'15'
p680
aa(lp681
S'04'
p682
aS'05'
p683
aS'10'
p684
aS'26'
p685
aS'27'
p686
aS'30'
p687
aS'12'
p688
aa(lp689
S'01'
p690
aS'07'
p691
aS'26'
p692
aS'29'
p693
aS'30'
p694
aS'31'
p695
aS'06'
p696
aa(lp697
S'01'
p698
aS'06'
p699
aS'08'
p700
aS'16'
p701
aS'17'
p702
aS'23'
p703
aS'05'
p704
aa(lp705
S'03'
p706
aS'06'
p707
aS'11'
p708
aS'16'
p709
aS'22'
p710
aS'27'
p711
aS'11'
p712
aa(lp713
S'02'
p714
aS'07'
p715
aS'14'
p716
aS'18'
p717
aS'19'
p718
aS'24'
p719
aS'01'
p720
aa(lp721
S'03'
p722
aS'12'
p723
aS'14'
p724
aS'23'
p725
aS'31'
p726
aS'32'
p727
aS'10'
p728
aa(lp729
S'01'
p730
aS'03'
p731
aS'18'
p732
aS'27'
p733
aS'28'
p734
aS'30'
p735
aS'05'
p736
aa(lp737
S'04'
p738
aS'10'
p739
aS'12'
p740
aS'16'
p741
aS'26'
p742
aS'28'
p743
aS'07'
p744
aa(lp745
S'01'
p746
aS'04'
p747
aS'15'
p748
aS'16'
p749
aS'23'
p750
aS'28'
p751
aS'14'
p752
aa(lp753
S'03'
p754
aS'08'
p755
aS'14'
p756
aS'21'
p757
aS'28'
p758
aS'29'
p759
aS'03'
p760
aa(lp761
S'06'
p762
aS'08'
p763
aS'12'
p764
aS'24'
p765
aS'27'
p766
aS'31'
p767
aS'14'
p768
aa(lp769
S'03'
p770
aS'06'
p771
aS'08'
p772
aS'09'
p773
aS'16'
p774
aS'17'
p775
aS'13'
p776
aa(lp777
S'06'
p778
aS'07'
p779
aS'10'
p780
aS'11'
p781
aS'15'
p782
aS'30'
p783
aS'01'
p784
aa(lp785
S'10'
p786
aS'15'
p787
aS'16'
p788
aS'22'
p789
aS'23'
p790
aS'24'
p791
aS'07'
p792
aa(lp793
S'08'
p794
aS'14'
p795
aS'17'
p796
aS'21'
p797
aS'27'
p798
aS'28'
p799
aS'14'
p800
aa(lp801
S'09'
p802
aS'17'
p803
aS'21'
p804
aS'26'
p805
aS'28'
p806
aS'30'
p807
aS'04'
p808
aa(lp809
S'03'
p810
aS'07'
p811
aS'12'
p812
aS'21'
p813
aS'25'
p814
aS'32'
p815
aS'05'
p816
aa(lp817
S'01'
p818
aS'12'
p819
aS'16'
p820
aS'18'
p821
aS'22'
p822
aS'33'
p823
aS'04'
p824
aa(lp825
S'03'
p826
aS'06'
p827
aS'08'
p828
aS'17'
p829
aS'24'
p830
aS'31'
p831
aS'01'
p832
aa(lp833
S'05'
p834
aS'17'
p835
aS'19'
p836
aS'27'
p837
aS'28'
p838
aS'32'
p839
aS'02'
p840
aa(lp841
S'14'
p842
aS'19'
p843
aS'25'
p844
aS'27'
p845
aS'29'
p846
aS'30'
p847
aS'15'
p848
aa(lp849
S'06'
p850
aS'13'
p851
aS'18'
p852
aS'22'
p853
aS'27'
p854
aS'32'
p855
aS'04'
p856
aa(lp857
S'09'
p858
aS'10'
p859
aS'15'
p860
aS'17'
p861
aS'23'
p862
aS'30'
p863
aS'12'
p864
aa(lp865
S'04'
p866
aS'07'
p867
aS'09'
p868
aS'16'
p869
aS'21'
p870
aS'28'
p871
aS'10'
p872
aa(lp873
S'10'
p874
aS'16'
p875
aS'22'
p876
aS'23'
p877
aS'29'
p878
aS'31'
p879
aS'02'
p880
aa(lp881
S'17'
p882
aS'18'
p883
aS'21'
p884
aS'25'
p885
aS'31'
p886
aS'32'
p887
aS'06'
p888
aa(lp889
S'05'
p890
aS'13'
p891
aS'14'
p892
aS'19'
p893
aS'22'
p894
aS'23'
p895
aS'06'
p896
aa(lp897
S'06'
p898
aS'09'
p899
aS'10'
p900
aS'12'
p901
aS'17'
p902
aS'22'
p903
aS'09'
p904
aa(lp905
S'04'
p906
aS'09'
p907
aS'20'
p908
aS'24'
p909
aS'25'
p910
aS'31'
p911
aS'14'
p912
aa(lp913
S'02'
p914
aS'12'
p915
aS'13'
p916
aS'14'
p917
aS'17'
p918
aS'18'
p919
aS'06'
p920
aa(lp921
S'03'
p922
aS'07'
p923
aS'21'
p924
aS'22'
p925
aS'24'
p926
aS'29'
p927
aS'14'
p928
aa(lp929
S'03'
p930
aS'05'
p931
aS'07'
p932
aS'10'
p933
aS'14'
p934
aS'33'
p935
aS'07'
p936
aa(lp937
S'04'
p938
aS'09'
p939
aS'16'
p940
aS'27'
p941
aS'31'
p942
aS'33'
p943
aS'01'
p944
aa(lp945
S'05'
p946
aS'07'
p947
aS'09'
p948
aS'15'
p949
aS'24'
p950
aS'29'
p951
aS'07'
p952
aa(lp953
S'10'
p954
aS'11'
p955
aS'22'
p956
aS'24'
p957
aS'26'
p958
aS'33'
p959
aS'02'
p960
aa(lp961
S'02'
p962
aS'22'
p963
aS'23'
p964
aS'27'
p965
aS'31'
p966
aS'32'
p967
aS'06'
p968
aa(lp969
S'02'
p970
aS'08'
p971
aS'11'
p972
aS'14'
p973
aS'19'
p974
aS'26'
p975
aS'15'
p976
aa(lp977
S'10'
p978
aS'11'
p979
aS'15'
p980
aS'16'
p981
aS'25'
p982
aS'29'
p983
aS'02'
p984
aa(lp985
S'01'
p986
aS'07'
p987
aS'10'
p988
aS'13'
p989
aS'21'
p990
aS'22'
p991
aS'03'
p992
aa(lp993
S'10'
p994
aS'11'
p995
aS'12'
p996
aS'15'
p997
aS'26'
p998
aS'29'
p999
aS'09'
p1000
aa(lp1001
S'04'
p1002
aS'11'
p1003
aS'12'
p1004
aS'14'
p1005
aS'20'
p1006
aS'30'
p1007
aS'13'
p1008
aa(lp1009
S'05'
p1010
aS'08'
p1011
aS'19'
p1012
aS'22'
p1013
aS'27'
p1014
aS'30'
p1015
aS'13'
p1016
aa(lp1017
S'01'
p1018
aS'05'
p1019
aS'19'
p1020
aS'20'
p1021
aS'27'
p1022
aS'33'
p1023
aS'05'
p1024
aa(lp1025
S'01'
p1026
aS'03'
p1027
aS'18'
p1028
aS'24'
p1029
aS'25'
p1030
aS'32'
p1031
aS'15'
p1032
aa(lp1033
S'01'
p1034
aS'12'
p1035
aS'18'
p1036
aS'28'
p1037
aS'30'
p1038
aS'32'
p1039
aS'06'
p1040
aa(lp1041
S'02'
p1042
aS'12'
p1043
aS'15'
p1044
aS'18'
p1045
aS'22'
p1046
aS'32'
p1047
aS'08'
p1048
aa(lp1049
S'09'
p1050
aS'13'
p1051
aS'16'
p1052
aS'25'
p1053
aS'27'
p1054
aS'33'
p1055
aS'08'
p1056
aa(lp1057
S'08'
p1058
aS'11'
p1059
aS'16'
p1060
aS'19'
p1061
aS'24'
p1062
aS'26'
p1063
aS'11'
p1064
aa(lp1065
S'10'
p1066
aS'15'
p1067
aS'19'
p1068
aS'20'
p1069
aS'28'
p1070
aS'32'
p1071
aS'02'
p1072
aa(lp1073
S'05'
p1074
aS'14'
p1075
aS'15'
p1076
aS'16'
p1077
aS'19'
p1078
aS'21'
p1079
aS'15'
p1080
aa(lp1081
S'05'
p1082
aS'09'
p1083
aS'10'
p1084
aS'12'
p1085
aS'18'
p1086
aS'28'
p1087
aS'02'
p1088
aa(lp1089
S'01'
p1090
aS'04'
p1091
aS'24'
p1092
aS'28'
p1093
aS'29'
p1094
aS'33'
p1095
aS'09'
p1096
aa(lp1097
S'07'
p1098
aS'14'
p1099
aS'19'
p1100
aS'23'
p1101
aS'25'
p1102
aS'32'
p1103
aS'04'
p1104
aa(lp1105
S'08'
p1106
aS'09'
p1107
aS'19'
p1108
aS'23'
p1109
aS'25'
p1110
aS'26'
p1111
aS'07'
p1112
aa(lp1113
S'07'
p1114
aS'14'
p1115
aS'16'
p1116
aS'29'
p1117
aS'30'
p1118
aS'31'
p1119
aS'14'
p1120
aa(lp1121
S'03'
p1122
aS'13'
p1123
aS'20'
p1124
aS'25'
p1125
aS'29'
p1126
aS'33'
p1127
aS'15'
p1128
aa(lp1129
S'05'
p1130
aS'06'
p1131
aS'10'
p1132
aS'13'
p1133
aS'17'
p1134
aS'28'
p1135
aS'15'
p1136
aa(lp1137
S'12'
p1138
aS'17'
p1139
aS'18'
p1140
aS'19'
p1141
aS'26'
p1142
aS'27'
p1143
aS'06'
p1144
aa(lp1145
S'02'
p1146
aS'05'
p1147
aS'10'
p1148
aS'27'
p1149
aS'29'
p1150
aS'33'
p1151
aS'15'
p1152
aa(lp1153
S'07'
p1154
aS'13'
p1155
aS'18'
p1156
aS'22'
p1157
aS'26'
p1158
aS'29'
p1159
aS'02'
p1160
aa(lp1161
S'07'
p1162
aS'08'
p1163
aS'17'
p1164
aS'19'
p1165
aS'31'
p1166
aS'32'
p1167
aS'10'
p1168
aa(lp1169
S'07'
p1170
aS'08'
p1171
aS'14'
p1172
aS'22'
p1173
aS'26'
p1174
aS'33'
p1175
aS'02'
p1176
aa(lp1177
S'03'
p1178
aS'05'
p1179
aS'09'
p1180
aS'22'
p1181
aS'26'
p1182
aS'28'
p1183
aS'09'
p1184
aa(lp1185
S'10'
p1186
aS'14'
p1187
aS'22'
p1188
aS'28'
p1189
aS'29'
p1190
aS'33'
p1191
aS'02'
p1192
aa(lp1193
S'04'
p1194
aS'19'
p1195
aS'22'
p1196
aS'24'
p1197
aS'29'
p1198
aS'32'
p1199
aS'02'
p1200
aa(lp1201
S'06'
p1202
aS'08'
p1203
aS'10'
p1204
aS'14'
p1205
aS'17'
p1206
aS'19'
p1207
aS'06'
p1208
aa(lp1209
S'01'
p1210
aS'04'
p1211
aS'06'
p1212
aS'22'
p1213
aS'26'
p1214
aS'30'
p1215
aS'08'
p1216
aa(lp1217
S'01'
p1218
aS'04'
p1219
aS'18'
p1220
aS'21'
p1221
aS'24'
p1222
aS'30'
p1223
aS'16'
p1224
aa(lp1225
S'02'
p1226
aS'05'
p1227
aS'07'
p1228
aS'21'
p1229
aS'22'
p1230
aS'26'
p1231
aS'08'
p1232
aa.