(lp0
(lp1
S'06'
p2
aS'08'
p3
aS'14'
p4
aS'15'
p5
aS'24'
p6
aS'25'
p7
aS'06'
p8
aa(lp9
S'01'
p10
aS'16'
p11
aS'18'
p12
aS'22'
p13
aS'28'
p14
aS'30'
p15
aS'12'
p16
aa(lp17
S'22'
p18
aS'23'
p19
aS'26'
p20
aS'27'
p21
aS'28'
p22
aS'33'
p23
aS'09'
p24
aa(lp25
S'06'
p26
aS'10'
p27
aS'16'
p28
aS'20'
p29
aS'27'
p30
aS'32'
p31
aS'08'
p32
aa(lp33
S'01'
p34
aS'13'
p35
aS'14'
p36
aS'25'
p37
aS'31'
p38
aS'32'
p39
aS'12'
p40
aa(lp41
S'09'
p42
aS'10'
p43
aS'13'
p44
aS'17'
p45
aS'22'
p46
aS'30'
p47
aS'13'
p48
aa(lp49
S'02'
p50
aS'09'
p51
aS'15'
p52
aS'22'
p53
aS'26'
p54
aS'32'
p55
aS'01'
p56
aa(lp57
S'03'
p58
aS'08'
p59
aS'17'
p60
aS'21'
p61
aS'25'
p62
aS'32'
p63
aS'15'
p64
aa(lp65
S'01'
p66
aS'04'
p67
aS'09'
p68
aS'13'
p69
aS'16'
p70
aS'23'
p71
aS'02'
p72
aa(lp73
S'01'
p74
aS'09'
p75
aS'11'
p76
aS'17'
p77
aS'32'
p78
aS'33'
p79
aS'12'
p80
aa(lp81
S'03'
p82
aS'12'
p83
aS'17'
p84
aS'24'
p85
aS'27'
p86
aS'29'
p87
aS'09'
p88
aa(lp89
S'06'
p90
aS'14'
p91
aS'17'
p92
aS'22'
p93
aS'28'
p94
aS'29'
p95
aS'02'
p96
aa(lp97
S'05'
p98
aS'06'
p99
aS'13'
p100
aS'19'
p101
aS'22'
p102
aS'28'
p103
aS'09'
p104
aa(lp105
S'02'
p106
aS'04'
p107
aS'05'
p108
aS'17'
p109
aS'19'
p110
aS'20'
p111
aS'08'
p112
aa(lp113
S'05'
p114
aS'06'
p115
aS'07'
p116
aS'11'
p117
aS'13'
p118
aS'18'
p119
aS'15'
p120
aa(lp121
S'02'
p122
aS'05'
p123
aS'06'
p124
aS'12'
p125
aS'14'
p126
aS'28'
p127
aS'05'
p128
aa(lp129
S'04'
p130
aS'06'
p131
aS'12'
p132
aS'30'
p133
aS'31'
p134
aS'32'
p135
aS'09'
p136
aa(lp137
S'02'
p138
aS'08'
p139
aS'13'
p140
aS'28'
p141
aS'29'
p142
aS'30'
p143
aS'05'
p144
aa(lp145
S'01'
p146
aS'02'
p147
aS'05'
p148
aS'16'
p149
aS'20'
p150
aS'26'
p151
aS'06'
p152
aa(lp153
S'01'
p154
aS'07'
p155
aS'08'
p156
aS'12'
p157
aS'16'
p158
aS'21'
p159
aS'01'
p160
aa(lp161
S'01'
p162
aS'06'
p163
aS'17'
p164
aS'19'
p165
aS'26'
p166
aS'31'
p167
aS'11'
p168
aa(lp169
S'02'
p170
aS'04'
p171
aS'07'
p172
aS'09'
p173
aS'15'
p174
aS'20'
p175
aS'07'
p176
aa(lp177
S'03'
p178
aS'06'
p179
aS'15'
p180
aS'18'
p181
aS'30'
p182
aS'32'
p183
aS'05'
p184
aa(lp185
S'04'
p186
aS'05'
p187
aS'13'
p188
aS'23'
p189
aS'27'
p190
aS'30'
p191
aS'09'
p192
aa(lp193
S'16'
p194
aS'17'
p195
aS'18'
p196
aS'24'
p197
aS'25'
p198
aS'30'
p199
aS'08'
p200
aa(lp201
S'04'
p202
aS'11'
p203
aS'14'
p204
aS'15'
p205
aS'22'
p206
aS'31'
p207
aS'11'
p208
aa(lp209
S'01'
p210
aS'02'
p211
aS'04'
p212
aS'12'
p213
aS'21'
p214
aS'24'
p215
aS'12'
p216
aa(lp217
S'07'
p218
aS'08'
p219
aS'14'
p220
aS'25'
p221
aS'26'
p222
aS'28'
p223
aS'13'
p224
aa(lp225
S'06'
p226
aS'07'
p227
aS'10'
p228
aS'19'
p229
aS'23'
p230
aS'29'
p231
aS'12'
p232
aa(lp233
S'07'
p234
aS'14'
p235
aS'18'
p236
aS'25'
p237
aS'26'
p238
aS'29'
p239
aS'06'
p240
aa(lp241
S'03'
p242
aS'13'
p243
aS'14'
p244
aS'15'
p245
aS'21'
p246
aS'33'
p247
aS'03'
p248
aa(lp249
S'04'
p250
aS'21'
p251
aS'25'
p252
aS'29'
p253
aS'30'
p254
aS'33'
p255
aS'03'
p256
aa(lp257
S'05'
p258
aS'06'
p259
aS'13'
p260
aS'17'
p261
aS'19'
p262
aS'28'
p263
aS'01'
p264
aa(lp265
S'06'
p266
aS'15'
p267
aS'20'
p268
aS'22'
p269
aS'26'
p270
aS'33'
p271
aS'09'
p272
aa(lp273
S'01'
p274
aS'14'
p275
aS'15'
p276
aS'17'
p277
aS'26'
p278
aS'30'
p279
aS'02'
p280
aa(lp281
S'04'
p282
aS'05'
p283
aS'09'
p284
aS'27'
p285
aS'29'
p286
aS'31'
p287
aS'13'
p288
aa(lp289
S'02'
p290
aS'15'
p291
aS'18'
p292
aS'27'
p293
aS'28'
p294
aS'32'
p295
aS'14'
p296
aa(lp297
S'09'
p298
aS'10'
p299
aS'12'
p300
aS'14'
p301
aS'15'
p302
aS'19'
p303
aS'11'
p304
aa(lp305
S'01'
p306
aS'02'
p307
aS'14'
p308
aS'15'
p309
aS'24'
p310
aS'29'
p311
aS'06'
p312
aa(lp313
S'02'
p314
aS'04'
p315
aS'10'
p316
aS'12'
p317
aS'17'
p318
aS'30'
p319
aS'10'
p320
aa(lp321
S'02'
p322
aS'10'
p323
aS'12'
p324
aS'17'
p325
aS'23'
p326
aS'24'
p327
aS'05'
p328
aa(lp329
S'01'
p330
aS'08'
p331
aS'12'
p332
aS'13'
p333
aS'15'
p334
aS'33'
p335
aS'03'
p336
aa(lp337
S'03'
p338
aS'06'
p339
aS'14'
p340
aS'15'
p341
aS'17'
p342
aS'25'
p343
aS'16'
p344
aa(lp345
S'03'
p346
aS'05'
p347
aS'11'
p348
aS'18'
p349
aS'26'
p350
aS'28'
p351
aS'06'
p352
aa(lp353
S'06'
p354
aS'07'
p355
aS'08'
p356
aS'14'
p357
aS'23'
p358
aS'31'
p359
aS'12'
p360
aa(lp361
S'03'
p362
aS'16'
p363
aS'19'
p364
aS'20'
p365
aS'24'
p366
aS'26'
p367
aS'06'
p368
aa(lp369
S'01'
p370
aS'08'
p371
aS'11'
p372
aS'17'
p373
aS'27'
p374
aS'30'
p375
aS'12'
p376
aa(lp377
S'10'
p378
aS'13'
p379
aS'17'
p380
aS'28'
p381
aS'30'
p382
aS'32'
p383
aS'04'
p384
aa(lp385
S'10'
p386
aS'13'
p387
aS'14'
p388
aS'16'
p389
aS'21'
p390
aS'32'
p391
aS'14'
p392
aa(lp393
S'03'
p394
aS'07'
p395
aS'13'
p396
aS'18'
p397
aS'22'
p398
aS'25'
p399
aS'03'
p400
aa(lp401
S'08'
p402
aS'12'
p403
aS'15'
p404
aS'19'
p405
aS'28'
p406
aS'29'
p407
aS'02'
p408
aa(lp409
S'06'
p410
aS'07'
p411
aS'14'
p412
aS'21'
p413
aS'22'
p414
aS'24'
p415
aS'13'
p416
aa(lp417
S'03'
p418
aS'12'
p419
aS'13'
p420
aS'22'
p421
aS'30'
p422
aS'33'
p423
aS'14'
p424
aa(lp425
S'03'
p426
aS'04'
p427
aS'08'
p428
aS'14'
p429
aS'21'
p430
aS'28'
p431
aS'14'
p432
aa(lp433
S'08'
p434
aS'18'
p435
aS'19'
p436
aS'22'
p437
aS'27'
p438
aS'32'
p439
aS'06'
p440
aa(lp441
S'03'
p442
aS'12'
p443
aS'25'
p444
aS'26'
p445
aS'28'
p446
aS'29'
p447
aS'16'
p448
aa(lp449
S'13'
p450
aS'16'
p451
aS'19'
p452
aS'23'
p453
aS'26'
p454
aS'28'
p455
aS'05'
p456
aa(lp457
S'08'
p458
aS'11'
p459
aS'17'
p460
aS'21'
p461
aS'23'
p462
aS'24'
p463
aS'05'
p464
aa(lp465
S'03'
p466
aS'10'
p467
aS'18'
p468
aS'24'
p469
aS'27'
p470
aS'29'
p471
aS'09'
p472
aa(lp473
S'05'
p474
aS'07'
p475
aS'10'
p476
aS'13'
p477
aS'19'
p478
aS'20'
p479
aS'15'
p480
aa.